; ModuleID = '15/2284.c'
source_filename = "15/2284.c"
target datalayout = "e-m:e-p270:32:32-p271:32:32-p272:64:64-i64:64-f80:128-n8:16:32:64-S128"
target triple = "x86_64-pc-linux-gnu"

@.str = private unnamed_addr constant [3 x i8] c"%i\00", align 1

; Function Attrs: noinline nounwind uwtable
define dso_local i32 @main() #0 {
  %1 = alloca i32, align 4
  %2 = alloca i32, align 4
  %3 = alloca i32, align 4
  %4 = alloca i32, align 4
  %5 = alloca i32, align 4
  %6 = alloca i32, align 4
  %7 = alloca i32, align 4
  %8 = alloca i32, align 4
  %9 = alloca i32, align 4
  %10 = alloca i32, align 4
  %11 = alloca i32, align 4
  %12 = alloca i32, align 4
  store i32 0, i32* %1, align 4
  %13 = call i32 (i8*, ...) @__isoc99_scanf(i8* getelementptr inbounds ([3 x i8], [3 x i8]* @.str, i64 0, i64 0), i32* %2)
  store i32 0, i32* %5, align 4
  store i32 1, i32* %3, align 4
  br label %14

14:                                               ; preds = %41, %0
  %15 = load i32, i32* %3, align 4
  %16 = load i32, i32* %2, align 4
  %17 = icmp sle i32 %15, %16
  br i1 %17, label %18, label %44

18:                                               ; preds = %14
  store i32 1, i32* %4, align 4
  br label %19

19:                                               ; preds = %37, %18
  %20 = load i32, i32* %4, align 4
  %21 = load i32, i32* %2, align 4
  %22 = icmp sle i32 %20, %21
  br i1 %22, label %23, label %40

23:                                               ; preds = %19
  %24 = call i32 (i8*, ...) @__isoc99_scanf(i8* getelementptr inbounds ([3 x i8], [3 x i8]* @.str, i64 0, i64 0), i32* %11)
  %25 = load i32, i32* %11, align 4
  %26 = icmp ne i32 %25, 0
  br i1 %26, label %36, label %27

27:                                               ; preds = %23
  %28 = load i32, i32* %3, align 4
  store i32 %28, i32* %9, align 4
  %29 = load i32, i32* %4, align 4
  store i32 %29, i32* %10, align 4
  %30 = load i32, i32* %5, align 4
  %31 = icmp eq i32 %30, 0
  br i1 %31, label %32, label %35

32:                                               ; preds = %27
  %33 = load i32, i32* %9, align 4
  store i32 %33, i32* %5, align 4
  %34 = load i32, i32* %10, align 4
  store i32 %34, i32* %6, align 4
  br label %35

35:                                               ; preds = %32, %27
  br label %36

36:                                               ; preds = %35, %23
  br label %37

37:                                               ; preds = %36
  %38 = load i32, i32* %4, align 4
  %39 = add nsw i32 %38, 1
  store i32 %39, i32* %4, align 4
  br label %19

40:                                               ; preds = %19
  br label %41

41:                                               ; preds = %40
  %42 = load i32, i32* %3, align 4
  %43 = add nsw i32 %42, 1
  store i32 %43, i32* %3, align 4
  br label %14

44:                                               ; preds = %14
  %45 = load i32, i32* %9, align 4
  store i32 %45, i32* %7, align 4
  %46 = load i32, i32* %10, align 4
  store i32 %46, i32* %8, align 4
  %47 = load i32, i32* %7, align 4
  %48 = load i32, i32* %5, align 4
  %49 = sub nsw i32 %47, %48
  %50 = sub nsw i32 %49, 1
  %51 = load i32, i32* %8, align 4
  %52 = load i32, i32* %6, align 4
  %53 = sub nsw i32 %51, %52
  %54 = sub nsw i32 %53, 1
  %55 = mul nsw i32 %50, %54
  store i32 %55, i32* %12, align 4
  %56 = load i32, i32* %12, align 4
  %57 = call i32 (i8*, ...) @printf(i8* getelementptr inbounds ([3 x i8], [3 x i8]* @.str, i64 0, i64 0), i32 %56)
  ret i32 0
}

declare dso_local i32 @__isoc99_scanf(i8*, ...) #1

declare dso_local i32 @printf(i8*, ...) #1


!llvm.module.flags = !{!0}
!llvm.ident = !{!1}

!0 = !{i32 1, !"wchar_size", i32 4}
!1 = !{!"clang version 10.0.0-4ubuntu1 "}
